target datalayout = "e-m:e-p270:32:32-p271:32:32-p272:64:64-i64:64-i128:128-f80:128-n8:16:32:64-S128"
target triple = "x86_64-pc-linux-gnu"

@.str = private unnamed_addr constant [135 x i8] c"generated/home/dtcxzyw/WorkSpace/Projects/compilers/llvm-opt-benchmark/bench/gromacs/gromacs/src/external/tng_io/src/compression/bwt.c\00", align 1
@stderr = external global ptr, align 8
@.str.1 = private unnamed_addr constant [38 x i8] c"BWT cannot pack more than %d values.\0A\00", align 1

; Function Attrs: nounwind uwtable
define void @Ptngc_comp_to_bwt(ptr noundef %0, i32 noundef %1, ptr noundef %2, ptr noundef %3) #0 {
  %5 = alloca ptr, align 8
  %6 = alloca i32, align 4
  %7 = alloca ptr, align 8
  %8 = alloca ptr, align 8
  %9 = alloca i32, align 4
  %10 = alloca ptr, align 8
  %11 = alloca ptr, align 8
  %12 = alloca ptr, align 8
  %13 = alloca i32, align 4
  %14 = alloca i32, align 4
  %15 = alloca i32, align 4
  %16 = alloca i32, align 4
  %17 = alloca i32, align 4
  %18 = alloca i32, align 4
  %19 = alloca i32, align 4
  %20 = alloca i32, align 4
  %21 = alloca i32, align 4
  %22 = alloca i32, align 4
  %23 = alloca i32, align 4
  store ptr %0, ptr %5, align 8
  store i32 %1, ptr %6, align 4
  store ptr %2, ptr %7, align 8
  store ptr %3, ptr %8, align 8
  %24 = load i32, ptr %6, align 4
  %25 = mul nsw i32 2, %24
  %26 = sext i32 %25 to i64
  %27 = mul i64 %26, 4
  %28 = call ptr @Ptngc_warnmalloc_x(i64 noundef %27, ptr noundef @.str, i32 noundef 170)
  store ptr %28, ptr %10, align 8
  %29 = load i32, ptr %6, align 4
  %30 = sext i32 %29 to i64
  %31 = mul i64 %30, 4
  %32 = call ptr @Ptngc_warnmalloc_x(i64 noundef %31, ptr noundef @.str, i32 noundef 171)
  store ptr %32, ptr %11, align 8
  %33 = load ptr, ptr %10, align 8
  %34 = load i32, ptr %6, align 4
  %35 = sext i32 %34 to i64
  %36 = getelementptr inbounds i32, ptr %33, i64 %35
  store ptr %36, ptr %12, align 8
  %37 = load i32, ptr %6, align 4
  %38 = icmp sgt i32 %37, 16777215
  br i1 %38, label %39, label %42

39:                                               ; preds = %4
  %40 = load ptr, ptr @stderr, align 8
  %41 = call i32 (ptr, ptr, ...) @fprintf(ptr noundef %40, ptr noundef @.str.1, i32 noundef 16777215) #6
  call void @exit(i32 noundef 1) #7
  unreachable

42:                                               ; preds = %4
  store i32 0, ptr %9, align 4
  br label %43

43:                                               ; preds = %53, %42
  %44 = load i32, ptr %9, align 4
  %45 = load i32, ptr %6, align 4
  %46 = icmp slt i32 %44, %45
  br i1 %46, label %47, label %56

47:                                               ; preds = %43
  %48 = load i32, ptr %9, align 4
  %49 = load ptr, ptr %10, align 8
  %50 = load i32, ptr %9, align 4
  %51 = sext i32 %50 to i64
  %52 = getelementptr inbounds i32, ptr %49, i64 %51
  store i32 %48, ptr %52, align 4
  br label %53

53:                                               ; preds = %47
  %54 = load i32, ptr %9, align 4
  %55 = add nsw i32 %54, 1
  store i32 %55, ptr %9, align 4
  br label %43, !llvm.loop !8

56:                                               ; preds = %43
  %57 = load ptr, ptr %11, align 8
  %58 = load i32, ptr %6, align 4
  %59 = sext i32 %58 to i64
  %60 = mul i64 4, %59
  call void @llvm.memset.p0.i64(ptr align 4 %57, i8 0, i64 %60, i1 false)
  store i32 0, ptr %9, align 4
  br label %61

61:                                               ; preds = %223, %56
  %62 = load i32, ptr %9, align 4
  %63 = load i32, ptr %6, align 4
  %64 = icmp slt i32 %62, %63
  br i1 %64, label %65, label %226

65:                                               ; preds = %61
  %66 = load ptr, ptr %11, align 8
  %67 = load i32, ptr %9, align 4
  %68 = sext i32 %67 to i64
  %69 = getelementptr inbounds i32, ptr %66, i64 %68
  %70 = load i32, ptr %69, align 4
  %71 = icmp ne i32 %70, 0
  br i1 %71, label %222, label %72

72:                                               ; preds = %65
  %73 = load i32, ptr %6, align 4
  %74 = mul nsw i32 %73, 2
  store i32 %74, ptr %13, align 4
  store i32 -1, ptr %17, align 4
  store i32 0, ptr %18, align 4
  store i32 16, ptr %19, align 4
  %75 = load i32, ptr %19, align 4
  store i32 %75, ptr %15, align 4
  br label %76

76:                                               ; preds = %165, %72
  %77 = load i32, ptr %15, align 4
  %78 = icmp sge i32 %77, 1
  br i1 %78, label %79, label %168

79:                                               ; preds = %76
  br label %80

80:                                               ; preds = %157, %79
  %81 = load i32, ptr %15, align 4
  %82 = icmp sge i32 %81, 1
  br i1 %82, label %83, label %164

83:                                               ; preds = %80
  %84 = load i32, ptr %15, align 4
  store i32 %84, ptr %14, align 4
  br label %85

85:                                               ; preds = %159, %83
  %86 = load i32, ptr %14, align 4
  %87 = load i32, ptr %13, align 4
  %88 = icmp slt i32 %86, %87
  br i1 %88, label %89, label %163

89:                                               ; preds = %85
  store i32 1, ptr %20, align 4
  store i32 0, ptr %16, align 4
  br label %90

90:                                               ; preds = %118, %89
  %91 = load i32, ptr %16, align 4
  %92 = load i32, ptr %15, align 4
  %93 = icmp slt i32 %91, %92
  br i1 %93, label %94, label %121

94:                                               ; preds = %90
  %95 = load ptr, ptr %5, align 8
  %96 = load i32, ptr %9, align 4
  %97 = load i32, ptr %16, align 4
  %98 = add nsw i32 %96, %97
  %99 = load i32, ptr %6, align 4
  %100 = srem i32 %98, %99
  %101 = sext i32 %100 to i64
  %102 = getelementptr inbounds i32, ptr %95, i64 %101
  %103 = load i32, ptr %102, align 4
  %104 = load ptr, ptr %5, align 8
  %105 = load i32, ptr %9, align 4
  %106 = load i32, ptr %14, align 4
  %107 = add nsw i32 %105, %106
  %108 = load i32, ptr %16, align 4
  %109 = add nsw i32 %107, %108
  %110 = load i32, ptr %6, align 4
  %111 = srem i32 %109, %110
  %112 = sext i32 %111 to i64
  %113 = getelementptr inbounds i32, ptr %104, i64 %112
  %114 = load i32, ptr %113, align 4
  %115 = icmp ne i32 %103, %114
  br i1 %115, label %116, label %117

116:                                              ; preds = %94
  store i32 0, ptr %20, align 4
  br label %121

117:                                              ; preds = %94
  br label %118

118:                                              ; preds = %117
  %119 = load i32, ptr %16, align 4
  %120 = add nsw i32 %119, 1
  store i32 %120, ptr %16, align 4
  br label %90, !llvm.loop !9

121:                                              ; preds = %116, %90
  %122 = load i32, ptr %20, align 4
  %123 = icmp ne i32 %122, 0
  br i1 %123, label %124, label %149

124:                                              ; preds = %121
  %125 = load i32, ptr %14, align 4
  %126 = load i32, ptr %15, align 4
  %127 = add nsw i32 %125, %126
  store i32 %127, ptr %21, align 4
  %128 = load i32, ptr %21, align 4
  %129 = load i32, ptr %13, align 4
  %130 = icmp sgt i32 %128, %129
  br i1 %130, label %131, label %133

131:                                              ; preds = %124
  %132 = load i32, ptr %14, align 4
  store i32 %132, ptr %21, align 4
  br label %133

133:                                              ; preds = %131, %124
  %134 = load i32, ptr %21, align 4
  %135 = load i32, ptr %17, align 4
  %136 = icmp sgt i32 %134, %135
  br i1 %136, label %145, label %137

137:                                              ; preds = %133
  %138 = load i32, ptr %21, align 4
  %139 = load i32, ptr %17, align 4
  %140 = icmp eq i32 %138, %139
  br i1 %140, label %141, label %148

141:                                              ; preds = %137
  %142 = load i32, ptr %15, align 4
  %143 = load i32, ptr %18, align 4
  %144 = icmp slt i32 %142, %143
  br i1 %144, label %145, label %148

145:                                              ; preds = %141, %133
  %146 = load i32, ptr %21, align 4
  store i32 %146, ptr %17, align 4
  %147 = load i32, ptr %15, align 4
  store i32 %147, ptr %18, align 4
  br label %148

148:                                              ; preds = %145, %141, %137
  br label %158

149:                                              ; preds = %121
  %150 = load i32, ptr %14, align 4
  %151 = icmp eq i32 %150, 0
  br i1 %151, label %152, label %154

152:                                              ; preds = %149
  %153 = load i32, ptr %16, align 4
  store i32 %153, ptr %15, align 4
  br label %157

154:                                              ; preds = %149
  %155 = load i32, ptr %15, align 4
  %156 = add nsw i32 %155, -1
  store i32 %156, ptr %15, align 4
  br label %157

157:                                              ; preds = %154, %152
  br label %80

158:                                              ; preds = %148
  br label %159

159:                                              ; preds = %158
  %160 = load i32, ptr %15, align 4
  %161 = load i32, ptr %14, align 4
  %162 = add nsw i32 %161, %160
  store i32 %162, ptr %14, align 4
  br label %85, !llvm.loop !10

163:                                              ; preds = %85
  br label %164

164:                                              ; preds = %163, %80
  br label %165

165:                                              ; preds = %164
  %166 = load i32, ptr %15, align 4
  %167 = add nsw i32 %166, -1
  store i32 %167, ptr %15, align 4
  br label %76, !llvm.loop !11

168:                                              ; preds = %76
  store i32 0, ptr %16, align 4
  br label %169

169:                                              ; preds = %203, %168
  %170 = load i32, ptr %16, align 4
  %171 = load i32, ptr %18, align 4
  %172 = add nsw i32 %170, %171
  %173 = load i32, ptr %17, align 4
  %174 = icmp slt i32 %172, %173
  br i1 %174, label %175, label %181

175:                                              ; preds = %169
  %176 = load i32, ptr %9, align 4
  %177 = load i32, ptr %16, align 4
  %178 = add nsw i32 %176, %177
  %179 = load i32, ptr %6, align 4
  %180 = icmp slt i32 %178, %179
  br label %181

181:                                              ; preds = %175, %169
  %182 = phi i1 [ false, %169 ], [ %180, %175 ]
  br i1 %182, label %183, label %207

183:                                              ; preds = %181
  %184 = load i32, ptr %17, align 4
  %185 = load i32, ptr %16, align 4
  %186 = sub nsw i32 %184, %185
  store i32 %186, ptr %22, align 4
  %187 = load i32, ptr %22, align 4
  %188 = load i32, ptr %6, align 4
  %189 = icmp sgt i32 %187, %188
  br i1 %189, label %190, label %192

190:                                              ; preds = %183
  %191 = load i32, ptr %6, align 4
  store i32 %191, ptr %22, align 4
  br label %192

192:                                              ; preds = %190, %183
  %193 = load i32, ptr %18, align 4
  %194 = load i32, ptr %22, align 4
  %195 = shl i32 %194, 8
  %196 = or i32 %193, %195
  %197 = load ptr, ptr %11, align 8
  %198 = load i32, ptr %9, align 4
  %199 = load i32, ptr %16, align 4
  %200 = add nsw i32 %198, %199
  %201 = sext i32 %200 to i64
  %202 = getelementptr inbounds i32, ptr %197, i64 %201
  store i32 %196, ptr %202, align 4
  br label %203

203:                                              ; preds = %192
  %204 = load i32, ptr %18, align 4
  %205 = load i32, ptr %16, align 4
  %206 = add nsw i32 %205, %204
  store i32 %206, ptr %16, align 4
  br label %169, !llvm.loop !12

207:                                              ; preds = %181
  %208 = load ptr, ptr %11, align 8
  %209 = load i32, ptr %9, align 4
  %210 = sext i32 %209 to i64
  %211 = getelementptr inbounds i32, ptr %208, i64 %210
  %212 = load i32, ptr %211, align 4
  %213 = icmp ne i32 %212, 0
  br i1 %213, label %221, label %214

214:                                              ; preds = %207
  %215 = load ptr, ptr %11, align 8
  %216 = load i32, ptr %9, align 4
  %217 = load i32, ptr %16, align 4
  %218 = add nsw i32 %216, %217
  %219 = sext i32 %218 to i64
  %220 = getelementptr inbounds i32, ptr %215, i64 %219
  store i32 257, ptr %220, align 4
  br label %221

221:                                              ; preds = %214, %207
  br label %222

222:                                              ; preds = %221, %65
  br label %223

223:                                              ; preds = %222
  %224 = load i32, ptr %9, align 4
  %225 = add nsw i32 %224, 1
  store i32 %225, ptr %9, align 4
  br label %61, !llvm.loop !13

226:                                              ; preds = %61
  %227 = load ptr, ptr %10, align 8
  %228 = load i32, ptr %6, align 4
  %229 = load ptr, ptr %5, align 8
  %230 = load i32, ptr %6, align 4
  %231 = load ptr, ptr %11, align 8
  %232 = load ptr, ptr %12, align 8
  call void @Ptngc_bwt_merge_sort_inner(ptr noundef %227, i32 noundef %228, ptr noundef %229, i32 noundef 0, i32 noundef %230, ptr noundef %231, ptr noundef %232)
  store i32 0, ptr %9, align 4
  br label %233

233:                                              ; preds = %246, %226
  %234 = load i32, ptr %9, align 4
  %235 = load i32, ptr %6, align 4
  %236 = icmp slt i32 %234, %235
  br i1 %236, label %237, label %249

237:                                              ; preds = %233
  %238 = load ptr, ptr %10, align 8
  %239 = load i32, ptr %9, align 4
  %240 = sext i32 %239 to i64
  %241 = getelementptr inbounds i32, ptr %238, i64 %240
  %242 = load i32, ptr %241, align 4
  %243 = icmp eq i32 %242, 0
  br i1 %243, label %244, label %245

244:                                              ; preds = %237
  br label %249

245:                                              ; preds = %237
  br label %246

246:                                              ; preds = %245
  %247 = load i32, ptr %9, align 4
  %248 = add nsw i32 %247, 1
  store i32 %248, ptr %9, align 4
  br label %233, !llvm.loop !14

249:                                              ; preds = %244, %233
  %250 = load i32, ptr %9, align 4
  %251 = load ptr, ptr %8, align 8
  store i32 %250, ptr %251, align 4
  store i32 0, ptr %9, align 4
  br label %252

252:                                              ; preds = %278, %249
  %253 = load i32, ptr %9, align 4
  %254 = load i32, ptr %6, align 4
  %255 = icmp slt i32 %253, %254
  br i1 %255, label %256, label %281

256:                                              ; preds = %252
  %257 = load ptr, ptr %10, align 8
  %258 = load i32, ptr %9, align 4
  %259 = sext i32 %258 to i64
  %260 = getelementptr inbounds i32, ptr %257, i64 %259
  %261 = load i32, ptr %260, align 4
  %262 = sub nsw i32 %261, 1
  store i32 %262, ptr %23, align 4
  %263 = load i32, ptr %23, align 4
  %264 = icmp slt i32 %263, 0
  br i1 %264, label %265, label %268

265:                                              ; preds = %256
  %266 = load i32, ptr %6, align 4
  %267 = sub nsw i32 %266, 1
  store i32 %267, ptr %23, align 4
  br label %268

268:                                              ; preds = %265, %256
  %269 = load ptr, ptr %5, align 8
  %270 = load i32, ptr %23, align 4
  %271 = sext i32 %270 to i64
  %272 = getelementptr inbounds i32, ptr %269, i64 %271
  %273 = load i32, ptr %272, align 4
  %274 = load ptr, ptr %7, align 8
  %275 = load i32, ptr %9, align 4
  %276 = sext i32 %275 to i64
  %277 = getelementptr inbounds i32, ptr %274, i64 %276
  store i32 %273, ptr %277, align 4
  br label %278

278:                                              ; preds = %268
  %279 = load i32, ptr %9, align 4
  %280 = add nsw i32 %279, 1
  store i32 %280, ptr %9, align 4
  br label %252, !llvm.loop !15

281:                                              ; preds = %252
  %282 = load ptr, ptr %11, align 8
  call void @free(ptr noundef %282) #6
  %283 = load ptr, ptr %10, align 8
  call void @free(ptr noundef %283) #6
  ret void
}