; Function Attrs: nounwind uwtable
define void @Ptngc_comp_to_bwt(ptr noundef %0, i32 noundef %1, ptr nocapture noundef writeonly %2, ptr nocapture noundef writeonly %3) local_unnamed_addr #2 {
  %5 = shl nsw i32 %1, 1
  %6 = sext i32 %5 to i64
  %7 = shl nsw i64 %6, 2
  %8 = tail call ptr @Ptngc_warnmalloc_x(i64 noundef %7, ptr noundef nonnull @.str, i32 noundef 170) #10
  %9 = sext i32 %1 to i64
  %10 = shl nsw i64 %9, 2
  %11 = tail call ptr @Ptngc_warnmalloc_x(i64 noundef %10, ptr noundef nonnull @.str, i32 noundef 171) #10
  %12 = getelementptr inbounds i32, ptr %8, i64 %9
  %13 = icmp sgt i32 %1, 16777215
  br i1 %13, label %15, label %.preheader143

.preheader143:                                    ; preds = %4
  %14 = icmp sgt i32 %1, 0
  br i1 %14, label %.lr.ph.preheader, label %._crit_edge.thread

._crit_edge.thread:                               ; preds = %.preheader143
  tail call void @llvm.memset.p0.i64(ptr align 4 %11, i8 0, i64 %10, i1 false)
  br label %._crit_edge191.thread

.lr.ph.preheader:                                 ; preds = %.preheader143
  %wide.trip.count = zext nneg i32 %1 to i64
  br label %.lr.ph

15:                                               ; preds = %4
  %16 = load ptr, ptr @stderr, align 8
  %17 = tail call i32 (ptr, ptr, ...) @fprintf(ptr noundef %16, ptr noundef nonnull @.str.1, i32 noundef 16777215) #11
  tail call void @exit(i32 noundef 1) #12
  unreachable

.lr.ph:                                           ; preds = %.lr.ph.preheader, %.lr.ph
  %indvars.iv = phi i64 [ 0, %.lr.ph.preheader ], [ %indvars.iv.next, %.lr.ph ]
  %18 = getelementptr inbounds i32, ptr %8, i64 %indvars.iv
  %19 = trunc nuw nsw i64 %indvars.iv to i32
  store i32 %19, ptr %18, align 4
  %indvars.iv.next = add nuw nsw i64 %indvars.iv, 1
  %exitcond.not = icmp eq i64 %indvars.iv.next, %wide.trip.count
  br i1 %exitcond.not, label %._crit_edge, label %.lr.ph, !llvm.loop !8

._crit_edge:                                      ; preds = %.lr.ph
  tail call void @llvm.memset.p0.i64(ptr align 4 %11, i8 0, i64 %10, i1 false)
  br i1 %14, label %.lr.ph190.preheader, label %._crit_edge191.thread

.lr.ph190.preheader:                              ; preds = %._crit_edge
  %wide.trip.count222 = zext nneg i32 %1 to i64
  br label %.lr.ph190

.lr.ph190:                                        ; preds = %.lr.ph190.preheader, %69
  %indvars.iv219 = phi i64 [ 0, %.lr.ph190.preheader ], [ %indvars.iv.next220, %69 ]
  %20 = getelementptr inbounds i32, ptr %11, i64 %indvars.iv219
  %21 = load i32, ptr %20, align 4
  %.not = icmp eq i32 %21, 0
  br i1 %.not, label %.preheader139.preheader, label %69

.preheader139.preheader:                          ; preds = %.lr.ph190
  %22 = trunc nuw nsw i64 %indvars.iv219 to i32
  br label %.preheader139

.preheader141:                                    ; preds = %.loopexit, %.split.us
  %.4238 = phi i32 [ %.2111155.us, %.split.us ], [ %.4, %.loopexit ]
  %.4117237 = phi i32 [ %.2115154.us, %.split.us ], [ %.4117, %.loopexit ]
  %23 = icmp slt i32 %.4238, %.4117237
  br i1 %23, label %.lr.ph184.preheader, label %.critedge.thread

.lr.ph184.preheader:                              ; preds = %.preheader141
  %24 = sext i32 %.4238 to i64
  %25 = sext i32 %.4117237 to i64
  %26 = trunc nuw nsw i64 %indvars.iv219 to i32
  br label %.lr.ph184

.preheader139:                                    ; preds = %.preheader139.preheader, %.loopexit
  %.0109182 = phi i32 [ %.4, %.loopexit ], [ 0, %.preheader139.preheader ]
  %.0113181 = phi i32 [ %.4117, %.loopexit ], [ -1, %.preheader139.preheader ]
  %.0120180 = phi i32 [ %53, %.loopexit ], [ 16, %.preheader139.preheader ]
  %27 = icmp slt i32 %.0120180, %5
  br label %.preheader138

.preheader138:                                    ; preds = %.preheader139, %.split.us
  %.1110179 = phi i32 [ %.0109182, %.preheader139 ], [ %.2111155.us, %.split.us ]
  %.1114178 = phi i32 [ %.0113181, %.preheader139 ], [ %.2115154.us, %.split.us ]
  %.1121177 = phi i32 [ %.0120180, %.preheader139 ], [ %52, %.split.us ]
  br i1 %27, label %.preheader.lr.ph, label %.loopexit

.preheader.lr.ph:                                 ; preds = %.preheader138
  %28 = icmp sgt i32 %.1121177, 0
  tail call void @llvm.assume(i1 %28)
  br label %.preheader.us

.preheader.us:                                    ; preds = %.preheader.lr.ph, %36
  %.2111155.us = phi i32 [ %.3112.us, %36 ], [ %.1110179, %.preheader.lr.ph ]
  %.2115154.us = phi i32 [ %.3116.us, %36 ], [ %.1114178, %.preheader.lr.ph ]
  %.0123153.us = phi i32 [ %49, %36 ], [ %.1121177, %.preheader.lr.ph ]
  %29 = add nuw nsw i32 %.0123153.us, %22
  br label %38

30:                                               ; preds = %38
  %31 = add nuw nsw i32 %.0118151.us, 1
  %exitcond215.not = icmp eq i32 %31, %.1121177
  br i1 %exitcond215.not, label %..critedge135_crit_edge.us, label %38, !llvm.loop !9

32:                                               ; preds = %..critedge135_crit_edge.us
  %33 = icmp eq i32 %spec.select.us, %.2115154.us
  %34 = icmp slt i32 %.1121177, %.2111155.us
  %or.cond.us = select i1 %33, i1 %34, i1 false
  br i1 %or.cond.us, label %35, label %36

35:                                               ; preds = %32, %..critedge135_crit_edge.us
  br label %36

36:                                               ; preds = %35, %32
  %.3116.us = phi i32 [ %spec.select.us, %35 ], [ %.2115154.us, %32 ]
  %.3112.us = phi i32 [ %.1121177, %35 ], [ %.2111155.us, %32 ]
  %37 = icmp slt i32 %49, %5
  br i1 %37, label %.preheader.us, label %.loopexit, !llvm.loop !10

38:                                               ; preds = %.preheader.us, %30
  %.0118151.us = phi i32 [ 0, %.preheader.us ], [ %31, %30 ]
  %39 = add nuw nsw i32 %.0118151.us, %22
  %40 = urem i32 %39, %1
  %41 = zext nneg i32 %40 to i64
  %42 = getelementptr inbounds i32, ptr %0, i64 %41
  %43 = load i32, ptr %42, align 4
  %44 = add nuw nsw i32 %29, %.0118151.us
  %45 = srem i32 %44, %1
  %46 = zext nneg i32 %45 to i64
  %47 = getelementptr inbounds i32, ptr %0, i64 %46
  %48 = load i32, ptr %47, align 4
  %.not132.us = icmp eq i32 %43, %48
  br i1 %.not132.us, label %30, label %.split.us

..critedge135_crit_edge.us:                       ; preds = %30
  %49 = add nuw nsw i32 %.0123153.us, %.1121177
  %50 = icmp sgt i32 %49, %5
  %spec.select.us = select i1 %50, i32 %.0123153.us, i32 %49
  %51 = icmp sgt i32 %spec.select.us, %.2115154.us
  br i1 %51, label %35, label %32

.split.us:                                        ; preds = %38
  %52 = add nsw i32 %.1121177, -1
  %.not203 = icmp eq i32 %.1121177, 1
  br i1 %.not203, label %.preheader141, label %.preheader138

.loopexit:                                        ; preds = %.preheader138, %36
  %.4117 = phi i32 [ %.3116.us, %36 ], [ %.1114178, %.preheader138 ]
  %.4 = phi i32 [ %.3112.us, %36 ], [ %.1110179, %.preheader138 ]
  %53 = add nsw i32 %.1121177, -1
  %54 = icmp sgt i32 %.1121177, 1
  br i1 %54, label %.preheader139, label %.preheader141, !llvm.loop !11

.lr.ph184:                                        ; preds = %.lr.ph184.preheader, %57
  %indvars.iv216 = phi i64 [ %24, %.lr.ph184.preheader ], [ %indvars.iv.next217, %57 ]
  %.1119183 = phi i32 [ 0, %.lr.ph184.preheader ], [ %64, %57 ]
  %55 = add nsw i32 %.1119183, %26
  %56 = icmp slt i32 %55, %1
  br i1 %56, label %57, label %.critedge

57:                                               ; preds = %.lr.ph184
  %58 = sub nsw i32 %.4117237, %.1119183
  %spec.select136 = tail call i32 @llvm.smin.i32(i32 %58, i32 %1)
  %59 = shl i32 %spec.select136, 8
  %60 = or i32 %59, %.4238
  %61 = sext i32 %55 to i64
  %62 = getelementptr inbounds i32, ptr %11, i64 %61
  store i32 %60, ptr %62, align 4
  %indvars.iv.next217 = add nuw nsw i64 %indvars.iv216, %24
  %63 = icmp slt i64 %indvars.iv.next217, %25
  %64 = trunc nsw i64 %indvars.iv216 to i32
  br i1 %63, label %.lr.ph184, label %.critedge, !llvm.loop !12

.critedge:                                        ; preds = %.lr.ph184, %57
  %.1119.lcssa.ph = phi i32 [ %.1119183, %.lr.ph184 ], [ %64, %57 ]
  %.pre = load i32, ptr %20, align 4
  %.not131 = icmp eq i32 %.pre, 0
  br i1 %.not131, label %.critedge.thread, label %69

.critedge.thread:                                 ; preds = %.preheader141, %.critedge
  %.1119.lcssa241 = phi i32 [ %.1119.lcssa.ph, %.critedge ], [ 0, %.preheader141 ]
  %65 = trunc nuw nsw i64 %indvars.iv219 to i32
  %66 = add nsw i32 %.1119.lcssa241, %65
  %67 = sext i32 %66 to i64
  %68 = getelementptr inbounds i32, ptr %11, i64 %67
  store i32 257, ptr %68, align 4
  br label %69

69:                                               ; preds = %.lr.ph190, %.critedge.thread, %.critedge
  %indvars.iv.next220 = add nuw nsw i64 %indvars.iv219, 1
  %exitcond223.not = icmp eq i64 %indvars.iv.next220, %wide.trip.count222
  br i1 %exitcond223.not, label %._crit_edge191, label %.lr.ph190, !llvm.loop !13

._crit_edge191.thread:                            ; preds = %._crit_edge.thread, %._crit_edge
  tail call void @Ptngc_bwt_merge_sort_inner(ptr noundef %8, i32 noundef %1, ptr noundef %0, i32 noundef 0, i32 noundef %1, ptr noundef %11, ptr noundef %12)
  br label %._crit_edge195.thread

._crit_edge191:                                   ; preds = %69
  tail call void @Ptngc_bwt_merge_sort_inner(ptr noundef %8, i32 noundef %1, ptr noundef %0, i32 noundef 0, i32 noundef %1, ptr noundef nonnull %11, ptr noundef nonnull %12)
  br i1 %14, label %.lr.ph194.preheader, label %._crit_edge195.thread

.lr.ph194.preheader:                              ; preds = %._crit_edge191
  %wide.trip.count227 = zext nneg i32 %1 to i64
  br label %.lr.ph194

.lr.ph194:                                        ; preds = %.lr.ph194.preheader, %73
  %indvars.iv224 = phi i64 [ 0, %.lr.ph194.preheader ], [ %indvars.iv.next225, %73 ]
  %70 = getelementptr inbounds i32, ptr %8, i64 %indvars.iv224
  %71 = load i32, ptr %70, align 4
  %72 = icmp eq i32 %71, 0
  br i1 %72, label %._crit_edge195.split.loop.exit259, label %73

73:                                               ; preds = %.lr.ph194
  %indvars.iv.next225 = add nuw nsw i64 %indvars.iv224, 1
  %exitcond228.not = icmp eq i64 %indvars.iv.next225, %wide.trip.count227
  br i1 %exitcond228.not, label %._crit_edge195, label %.lr.ph194, !llvm.loop !14

._crit_edge195.thread:                            ; preds = %._crit_edge191.thread, %._crit_edge191
  store i32 0, ptr %3, align 4
  br label %._crit_edge202

._crit_edge195.split.loop.exit259:                ; preds = %.lr.ph194
  %74 = trunc nuw nsw i64 %indvars.iv224 to i32
  br label %._crit_edge195

._crit_edge195:                                   ; preds = %73, %._crit_edge195.split.loop.exit259
  %.2.lcssa = phi i32 [ %74, %._crit_edge195.split.loop.exit259 ], [ %1, %73 ]
  store i32 %.2.lcssa, ptr %3, align 4
  %invariant.gep = getelementptr i8, ptr %0, i64 -4
  br i1 %14, label %.lr.ph201.preheader, label %._crit_edge202

.lr.ph201.preheader:                              ; preds = %._crit_edge195
  %wide.trip.count232 = zext nneg i32 %1 to i64
  br label %.lr.ph201

.lr.ph201:                                        ; preds = %.lr.ph201.preheader, %.lr.ph201
  %indvars.iv229 = phi i64 [ 0, %.lr.ph201.preheader ], [ %indvars.iv.next230, %.lr.ph201 ]
  %75 = getelementptr inbounds i32, ptr %8, i64 %indvars.iv229
  %76 = load i32, ptr %75, align 4
  %77 = icmp slt i32 %76, 1
  %spec.select137 = select i1 %77, i32 %1, i32 %76
  %78 = sext i32 %spec.select137 to i64
  %gep = getelementptr i32, ptr %invariant.gep, i64 %78
  %79 = load i32, ptr %gep, align 4
  %80 = getelementptr inbounds i32, ptr %2, i64 %indvars.iv229
  store i32 %79, ptr %80, align 4
  %indvars.iv.next230 = add nuw nsw i64 %indvars.iv229, 1
  %exitcond233.not = icmp eq i64 %indvars.iv.next230, %wide.trip.count232
  br i1 %exitcond233.not, label %._crit_edge202, label %.lr.ph201, !llvm.loop !15

._crit_edge202:                                   ; preds = %.lr.ph201, %._crit_edge195.thread, %._crit_edge195
  tail call void @free(ptr noundef %11) #10
  tail call void @free(ptr noundef %8) #10
  ret void
}